
muldiv:     file format elf32-littleriscv


Disassembly of section .text:

80000000 <_start>:
80000000:	80020137          	lui	sp,0x80020
80000004:	008000ef          	jal	ra,8000000c <main>
80000008:	00000073          	ecall

8000000c <main>:
8000000c:	ff010113          	addi	sp,sp,-16 # 8001fff0 <_end+0xff30>
80000010:	00112023          	sw	ra,0(sp)
80000014:	80010f37          	lui	t5,0x80010
80000018:	000f0f13          	mv	t5,t5
8000001c:	00800e93          	li	t4,8

80000020 <MulTest>:
80000020:	01000f93          	li	t6,16
80000024:	00000293          	li	t0,0
80000028:	000f0313          	mv	t1,t5
8000002c:	020f0393          	addi	t2,t5,32 # 80010020 <_end+0xffffff60>
80000030:	040f0e13          	addi	t3,t5,64

80000034 <MulLoop>:
80000034:	00032503          	lw	a0,0(t1)
80000038:	0003a583          	lw	a1,0(t2)
8000003c:	0e4000ef          	jal	ra,80000120 <mul>
80000040:	000e2583          	lw	a1,0(t3)
80000044:	0cb51863          	bne	a0,a1,80000114 <Fail>
80000048:	00430313          	addi	t1,t1,4
8000004c:	00438393          	addi	t2,t2,4
80000050:	004e0e13          	addi	t3,t3,4
80000054:	00128293          	addi	t0,t0,1
80000058:	fdd29ee3          	bne	t0,t4,80000034 <MulLoop>

8000005c <MulhTest>:
8000005c:	02000f93          	li	t6,32
80000060:	00000293          	li	t0,0
80000064:	000f0313          	mv	t1,t5
80000068:	020f0393          	addi	t2,t5,32
8000006c:	060f0e13          	addi	t3,t5,96

80000070 <MulhLoop>:
80000070:	00032503          	lw	a0,0(t1)
80000074:	0003a583          	lw	a1,0(t2)
80000078:	0cc000ef          	jal	ra,80000144 <mulh>
8000007c:	000e2583          	lw	a1,0(t3)
80000080:	08b51a63          	bne	a0,a1,80000114 <Fail>
80000084:	00430313          	addi	t1,t1,4
80000088:	00438393          	addi	t2,t2,4
8000008c:	004e0e13          	addi	t3,t3,4
80000090:	00128293          	addi	t0,t0,1
80000094:	fdd29ee3          	bne	t0,t4,80000070 <MulhLoop>

80000098 <DivTest>:
80000098:	03000f93          	li	t6,48
8000009c:	00000293          	li	t0,0
800000a0:	000f0313          	mv	t1,t5
800000a4:	020f0393          	addi	t2,t5,32
800000a8:	080f0e13          	addi	t3,t5,128

800000ac <DivLoop>:
800000ac:	00032503          	lw	a0,0(t1)
800000b0:	0003a583          	lw	a1,0(t2)
800000b4:	0f0000ef          	jal	ra,800001a4 <div>
800000b8:	000e2583          	lw	a1,0(t3)
800000bc:	04b51c63          	bne	a0,a1,80000114 <Fail>
800000c0:	00430313          	addi	t1,t1,4
800000c4:	00438393          	addi	t2,t2,4
800000c8:	004e0e13          	addi	t3,t3,4
800000cc:	00128293          	addi	t0,t0,1
800000d0:	fdd29ee3          	bne	t0,t4,800000ac <DivLoop>

800000d4 <RemTest>:
800000d4:	04000f93          	li	t6,64
800000d8:	00000293          	li	t0,0
800000dc:	000f0313          	mv	t1,t5
800000e0:	020f0393          	addi	t2,t5,32
800000e4:	0a0f0e13          	addi	t3,t5,160

800000e8 <RemLoop>:
800000e8:	00032503          	lw	a0,0(t1)
800000ec:	0003a583          	lw	a1,0(t2)
800000f0:	0b8000ef          	jal	ra,800001a8 <rem>
800000f4:	000e2583          	lw	a1,0(t3)
800000f8:	00b51e63          	bne	a0,a1,80000114 <Fail>
800000fc:	00430313          	addi	t1,t1,4
80000100:	00438393          	addi	t2,t2,4
80000104:	004e0e13          	addi	t3,t3,4
80000108:	00128293          	addi	t0,t0,1
8000010c:	fdd29ee3          	bne	t0,t4,800000e8 <RemLoop>

80000110 <Success>:
80000110:	00000f93          	li	t6,0

80000114 <Fail>:
80000114:	00012083          	lw	ra,0(sp)
80000118:	01010113          	addi	sp,sp,16
8000011c:	00008067          	ret

80000120 <mul>:
80000120:	00000613          	li	a2,0

80000124 <L0>:
80000124:	0015f693          	andi	a3,a1,1
80000128:	00068463          	beqz	a3,80000130 <L2>

8000012c <L1>:
8000012c:	00a60633          	add	a2,a2,a0

80000130 <L2>:
80000130:	00151513          	slli	a0,a0,0x1
80000134:	0015d593          	srli	a1,a1,0x1
80000138:	fe0596e3          	bnez	a1,80000124 <L0>
8000013c:	00060513          	mv	a0,a2
80000140:	00008067          	ret

80000144 <mulh>:
80000144:	0005d663          	bgez	a1,80000150 <L3>
80000148:	40a00533          	neg	a0,a0
8000014c:	40b005b3          	neg	a1,a1

80000150 <L3>:
80000150:	00000613          	li	a2,0
80000154:	00000713          	li	a4,0
80000158:	00000793          	li	a5,0
8000015c:	00055463          	bgez	a0,80000164 <L4>
80000160:	fff00713          	li	a4,-1

80000164 <L4>:
80000164:	0015f693          	andi	a3,a1,1
80000168:	00068863          	beqz	a3,80000178 <L6>

8000016c <L5>:
8000016c:	00a60633          	add	a2,a2,a0
80000170:	00a67463          	bgeu	a2,a0,80000178 <L6>
80000174:	00178793          	addi	a5,a5,1

80000178 <L6>:
80000178:	00e787b3          	add	a5,a5,a4
8000017c:	800006b7          	lui	a3,0x80000
80000180:	00a6f6b3          	and	a3,a3,a0
80000184:	00151513          	slli	a0,a0,0x1
80000188:	00171713          	slli	a4,a4,0x1
8000018c:	00068463          	beqz	a3,80000194 <L7>
80000190:	00170713          	addi	a4,a4,1

80000194 <L7>:
80000194:	0015d593          	srli	a1,a1,0x1
80000198:	fc0596e3          	bnez	a1,80000164 <L4>
8000019c:	00078513          	mv	a0,a5
800001a0:	00008067          	ret

800001a4 <div>:
800001a4:	00008067          	ret

800001a8 <rem>:
800001a8:	00008067          	ret

Disassembly of section .data:

80010000 <DATA_SECTION>:
80010000:	33333333          	0x33333333
80010004:	0000                	unimp
80010006:	8000                	0x8000
80010008:	ffff                	0xffff
8001000a:	ffff                	0xffff
8001000c:	5678                	lw	a4,108(a2)
8001000e:	1234                	addi	a3,sp,296
80010010:	00112233          	slt	tp,sp,ra
80010014:	2019                	jal	8001001a <DATA_SECTION+0x1a>
80010016:	2019                	jal	8001001c <DATA_SECTION+0x1c>
80010018:	babe                	fsd	fa5,368(sp)
8001001a:	cafe                	sw	t6,84(sp)
8001001c:	deadbeef          	jal	t4,7ffeb606 <_start-0x149fa>

80010020 <y>:
80010020:	0000                	unimp
80010022:	0000                	unimp
80010024:	ffff                	0xffff
80010026:	ffff                	0xffff
80010028:	ffff                	0xffff
8001002a:	ffff                	0xffff
8001002c:	4321                	li	t1,8
8001002e:	0005                	c.nop	1
80010030:	b00c                	fsd	fa1,32(s0)
80010032:	face                	fsw	fs3,116(sp)
80010034:	0308                	addi	a0,sp,384
80010036:	0419                	addi	s0,s0,6
80010038:	0001                	nop
8001003a:	0000                	unimp
8001003c:	0000                	unimp
8001003e:	8000                	0x8000

80010040 <mul_ans>:
80010040:	0000                	unimp
80010042:	0000                	unimp
80010044:	0000                	unimp
80010046:	8000                	0x8000
80010048:	0001                	nop
8001004a:	0000                	unimp
8001004c:	8d78                	0x8d78
8001004e:	bbb8                	fsd	fa4,112(a5)
80010050:	aa64                	fsd	fs1,208(a2)
80010052:	1b5a                	slli	s6,s6,0x36
80010054:	4bc8                	lw	a0,20(a5)
80010056:	d29a                	sw	t1,100(sp)
80010058:	babe                	fsd	fa5,368(sp)
8001005a:	cafe                	sw	t6,84(sp)
8001005c:	0000                	unimp
8001005e:	8000                	0x8000

80010060 <mulh_ans>:
	...
8001006c:	00005fcb          	fnmsub.s	ft11,ft0,ft0,ft0,unknown
80010070:	a708                	fsd	fa0,8(a4)
80010072:	ffff                	0xffff
80010074:	8755                	srai	a4,a4,0x15
80010076:	ffff0083          	lb	ra,-1(t5)
8001007a:	ffff                	0xffff
8001007c:	2088                	fld	fa0,0(s1)
8001007e:	10a9                	addi	ra,ra,-22

80010080 <div_ans>:
80010080:	ffff                	0xffff
80010082:	ffff                	0xffff
80010084:	0000                	unimp
80010086:	8000                	0x8000
80010088:	0001                	nop
8001008a:	0000                	unimp
8001008c:	0375                	addi	t1,t1,29
8001008e:	0000                	unimp
80010090:	0000                	unimp
80010092:	0000                	unimp
80010094:	00000007          	0x7
80010098:	babe                	fsd	fa5,368(sp)
8001009a:	cafe                	sw	t6,84(sp)
8001009c:	0000                	unimp
	...

800100a0 <rem_ans>:
800100a0:	33333333          	0x33333333
	...
800100ac:	00034563          	bltz	t1,800100b6 <rem_ans+0x16>
800100b0:	00112233          	slt	tp,sp,ra
800100b4:	0ae1                	addi	s5,s5,24
800100b6:	036a                	slli	t1,t1,0x1a
800100b8:	0000                	unimp
800100ba:	0000                	unimp
800100bc:	deadbeef          	jal	t4,7ffeb6a6 <_start-0x1495a>
